target datalayout = "e-m:e-p270:32:32-p271:32:32-p272:64:64-i64:64-i128:128-f80:128-n8:16:32:64-S128"
target triple = "x86_64-pc-linux-gnu"

%struct.strvec = type { ptr, i64, i64 }
%struct.strbuf = type { i64, i64, ptr }
%struct.rev_info = type { ptr, %struct.object_array, ptr, %struct.object_array, %struct.rev_cmdline_info, %struct.list_objects_filter_options, %struct.ref_exclusions, ptr, ptr, ptr, %struct.pathspec, i32, i32, i32, i32, i64, i32, i32, %struct.date_mode, i32, i32, i32, i32, ptr, i32, i32, ptr, ptr, i32, ptr, ptr, %struct.ident_split, ptr, i32, ptr, ptr, ptr, i32, i32, i32, ptr, %struct.grep_opt, ptr, i32, i32, i64, i64, i64, i32, i32, ptr, ptr, ptr, %struct.diff_options, %struct.diff_options, ptr, %struct.decoration, %struct.decoration, %struct.decoration, %struct.display_notes_opt, ptr, ptr, ptr, ptr, ptr, i32, ptr, i32, i32, i32, %struct.decoration, ptr, ptr, ptr, ptr, ptr, ptr, ptr, i32, ptr, i32, ptr, %struct.oidset }
%struct.object_array = type { i32, i32, ptr }
%struct.rev_cmdline_info = type { i32, i32, ptr }
%struct.list_objects_filter_options = type { %struct.strbuf, i32, i8, ptr, i64, i64, i32, i64, i64, ptr }
%struct.ref_exclusions = type { %struct.string_list, %struct.strvec, i8 }
%struct.string_list = type { ptr, i64, i64, i8, ptr }
%struct.pathspec = type { i32, i8, i32, i32, ptr }
%struct.date_mode = type { i32, i32, ptr }
%struct.ident_split = type { ptr, ptr, ptr, ptr, ptr, ptr, ptr, ptr }
%struct.grep_opt = type { ptr, ptr, ptr, ptr, ptr, ptr, i32, i32, i32, i32, i32, i32, i32, i32, i32, i32, i32, i32, i32, i32, i32, i32, i32, i32, i32, i32, i32, i32, i32, i32, i32, i32, [9 x [75 x i8]], i32, i32, i32, i32, i32, i32, i32, ptr, ptr, ptr }
%struct.diff_options = type { ptr, ptr, i32, i32, ptr, i32, ptr, i64, i64, ptr, ptr, ptr, ptr, %struct.diff_flags, i32, i32, i32, i32, i32, i32, i32, i32, i32, i32, i32, i32, i32, i32, i32, i32, i32, i32, i32, i32, i32, i32, ptr, i32, ptr, i32, i32, ptr, i64, i64, i32, i32, i32, i32, ptr, i32, i32, ptr, i32, i32, ptr, ptr, i32, [3 x i8], %struct.pathspec, ptr, ptr, ptr, ptr, ptr, ptr, ptr, ptr, i32, ptr, i32, i32, ptr, ptr, i32 }
%struct.diff_flags = type { i32, i32, i32, i32, i32, i32, i32, i32, i32, i32, i32, i32, i32, i32, i32, i32, i32, i32, i32, i32, i32, i32, i32, i32, i32, i32, i32, i32, i32, i32, i32, i32, i32, i32, i32 }
%struct.display_notes_opt = type { i32, %struct.string_list }
%struct.decoration = type { ptr, i32, i32, ptr }
%struct.oidset = type { %struct.kh_oid_set }
%struct.kh_oid_set = type { i32, i32, i32, i32, ptr, ptr, ptr }
%struct.object_id = type { [32 x i8], i32 }
%struct.object = type { i32, %struct.object_id }
%struct.process_commit_data = type { %struct.object_id, %struct.object_id, ptr, ptr }

@.str.95 = private unnamed_addr constant [4 x i8] c":%s\00", align 1

; Function Attrs: inlinehint nounwind uwtable
define internal i32 @oideq(ptr noundef %0, ptr noundef %1) #4 {
  %3 = alloca ptr, align 8
  %4 = alloca ptr, align 8
  store ptr %0, ptr %3, align 8, !tbaa !74
  store ptr %1, ptr %4, align 8, !tbaa !74
  %5 = load ptr, ptr %3, align 8, !tbaa !74
  %6 = getelementptr inbounds nuw %struct.object_id, ptr %5, i32 0, i32 0
  %7 = getelementptr inbounds [32 x i8], ptr %6, i64 0, i64 0
  %8 = load ptr, ptr %4, align 8, !tbaa !74
  %9 = getelementptr inbounds nuw %struct.object_id, ptr %8, i32 0, i32 0
  %10 = getelementptr inbounds [32 x i8], ptr %9, i64 0, i64 0
  %11 = call i32 @memcmp(ptr noundef %7, ptr noundef %10, i64 noundef 32) #11
  %12 = icmp ne i32 %11, 0
  %13 = xor i1 %12, true
  %14 = zext i1 %13 to i32
  ret i32 %14
}

; Function Attrs: nounwind uwtable
define internal void @process_object(ptr noundef %0, ptr noundef %1, ptr noundef %2) #0 {
  %4 = alloca ptr, align 8
  %5 = alloca ptr, align 8
  %6 = alloca ptr, align 8
  %7 = alloca ptr, align 8
  store ptr %0, ptr %4, align 8, !tbaa !156
  store ptr %1, ptr %5, align 8, !tbaa !11
  store ptr %2, ptr %6, align 8, !tbaa !68
  call void @llvm.lifetime.start.p0(i64 8, ptr %7) #9
  %8 = load ptr, ptr %6, align 8, !tbaa !68
  store ptr %8, ptr %7, align 8, !tbaa !154
  %9 = load ptr, ptr %7, align 8, !tbaa !154
  %10 = getelementptr inbounds nuw %struct.process_commit_data, ptr %9, i32 0, i32 1
  %11 = load ptr, ptr %4, align 8, !tbaa !156
  %12 = getelementptr inbounds nuw %struct.object, ptr %11, i32 0, i32 1
  %13 = call i32 @oideq(ptr noundef %10, ptr noundef %12)
  %14 = icmp ne i32 %13, 0
  br i1 %14, label %15, label %41

15:                                               ; preds = %3
  %16 = load ptr, ptr %7, align 8, !tbaa !154
  %17 = getelementptr inbounds nuw %struct.process_commit_data, ptr %16, i32 0, i32 2
  %18 = load ptr, ptr %17, align 8, !tbaa !131
  %19 = getelementptr inbounds nuw %struct.strbuf, ptr %18, i32 0, i32 1
  %20 = load i64, ptr %19, align 8, !tbaa !157
  %21 = icmp ne i64 %20, 0
  br i1 %21, label %41, label %22

22:                                               ; preds = %15
  call void @reset_revision_walk()
  %23 = load ptr, ptr %7, align 8, !tbaa !154
  %24 = getelementptr inbounds nuw %struct.process_commit_data, ptr %23, i32 0, i32 0
  %25 = load ptr, ptr %7, align 8, !tbaa !154
  %26 = getelementptr inbounds nuw %struct.process_commit_data, ptr %25, i32 0, i32 2
  %27 = load ptr, ptr %26, align 8, !tbaa !131
  call void @describe_commit(ptr noundef %24, ptr noundef %27)
  %28 = load ptr, ptr %7, align 8, !tbaa !154
  %29 = getelementptr inbounds nuw %struct.process_commit_data, ptr %28, i32 0, i32 2
  %30 = load ptr, ptr %29, align 8, !tbaa !131
  %31 = load ptr, ptr %5, align 8, !tbaa !11
  call void (ptr, ptr, ...) @strbuf_addf(ptr noundef %30, ptr noundef @.str.95, ptr noundef %31)
  %32 = load ptr, ptr %7, align 8, !tbaa !154
  %33 = getelementptr inbounds nuw %struct.process_commit_data, ptr %32, i32 0, i32 3
  %34 = load ptr, ptr %33, align 8, !tbaa !134
  %35 = getelementptr inbounds nuw %struct.rev_info, ptr %34, i32 0, i32 0
  %36 = load ptr, ptr %35, align 8, !tbaa !158
  call void @free_commit_list(ptr noundef %36)
  %37 = load ptr, ptr %7, align 8, !tbaa !154
  %38 = getelementptr inbounds nuw %struct.process_commit_data, ptr %37, i32 0, i32 3
  %39 = load ptr, ptr %38, align 8, !tbaa !134
  %40 = getelementptr inbounds nuw %struct.rev_info, ptr %39, i32 0, i32 0
  store ptr null, ptr %40, align 8, !tbaa !158
  br label %41

41:                                               ; preds = %22, %15, %3
  call void @llvm.lifetime.end.p0(i64 8, ptr %7) #9
  ret void
}