; Function Attrs: nounwind uwtable
define internal void @process_object(ptr noundef readonly captures(none) %0, ptr noundef %1, ptr noundef %2) #0 {
  %4 = getelementptr inbounds nuw i8, ptr %2, i64 36
  %5 = getelementptr inbounds nuw i8, ptr %0, i64 4
  %bcmp.i = tail call i32 @bcmp(ptr noundef nonnull readonly dereferenceable(32) %4, ptr noundef nonnull readonly dereferenceable(32) %5, i64 32)
  %.not.i.not = icmp eq i32 %bcmp.i, 0
  br i1 %.not.i.not, label %6, label %18

6:                                                ; preds = %3
  %7 = getelementptr inbounds nuw i8, ptr %2, i64 72
  %8 = load ptr, ptr %7, align 8, !tbaa !76
  %9 = getelementptr inbounds nuw i8, ptr %8, i64 8
  %10 = load i64, ptr %9, align 8, !tbaa !114
  %.not10 = icmp eq i64 %10, 0
  br i1 %.not10, label %11, label %18

11:                                               ; preds = %6
  tail call void @reset_revision_walk() #16
  %12 = load ptr, ptr %7, align 8, !tbaa !76
  tail call fastcc void @describe_commit(ptr noundef nonnull %2, ptr noundef %12)
  %13 = load ptr, ptr %7, align 8, !tbaa !76
  tail call void (ptr, ptr, ...) @strbuf_addf(ptr noundef %13, ptr noundef nonnull @.str.95, ptr noundef %1) #16
  %14 = getelementptr inbounds nuw i8, ptr %2, i64 80
  %15 = load ptr, ptr %14, align 8, !tbaa !80
  %16 = load ptr, ptr %15, align 8, !tbaa !115
  tail call void @free_commit_list(ptr noundef %16) #16
  %17 = load ptr, ptr %14, align 8, !tbaa !80
  store ptr null, ptr %17, align 8, !tbaa !115
  br label %18

18:                                               ; preds = %11, %6, %3
  ret void
}